target datalayout = "e-m:e-p270:32:32-p271:32:32-p272:64:64-i64:64-i128:128-f80:128-n8:16:32:64-S128"
target triple = "x86_64-pc-linux-gnu"

%struct.PJconsts = type { ptr, ptr, ptr, ptr, ptr, ptr, ptr, ptr, ptr, ptr, ptr, ptr, i32, ptr, ptr, ptr, ptr, ptr, ptr, ptr, ptr, double, double, double, double, double, double, double, double, double, double, double, double, double, double, double, double, double, double, double, double, double, double, i32, i32, i32, i32, i32, i32, i32, i32, i32, i32, i32, ptr, ptr, ptr, ptr, ptr, ptr, double, double, double, double, double, double, double, double, double, double, double, i32, [7 x double], i32, ptr, ptr, double, double, i32, [4 x i8], %"class.std::shared_ptr", i8, double, i8, %"class.std::__cxx11::basic_string", %"class.std::__cxx11::basic_string", %"class.std::__cxx11::basic_string", i8, %"class.std::vector", i32, %"class.std::vector.3", i32, i8, i8, i8, ptr }
%"class.std::shared_ptr" = type { %"class.std::__shared_ptr" }
%"class.std::__shared_ptr" = type { ptr, %"class.std::__shared_count" }
%"class.std::__shared_count" = type { ptr }
%"class.std::__cxx11::basic_string" = type { %"struct.std::__cxx11::basic_string<char>::_Alloc_hider", i64, %union.anon }
%"struct.std::__cxx11::basic_string<char>::_Alloc_hider" = type { ptr }
%union.anon = type { i64, [8 x i8] }
%"class.std::vector" = type { %"struct.std::_Vector_base" }
%"struct.std::_Vector_base" = type { %"struct.std::_Vector_base<osgeo::proj::operation::GridDescription, std::allocator<osgeo::proj::operation::GridDescription>>::_Vector_impl" }
%"struct.std::_Vector_base<osgeo::proj::operation::GridDescription, std::allocator<osgeo::proj::operation::GridDescription>>::_Vector_impl" = type { %"struct.std::_Vector_base<osgeo::proj::operation::GridDescription, std::allocator<osgeo::proj::operation::GridDescription>>::_Vector_impl_data" }
%"struct.std::_Vector_base<osgeo::proj::operation::GridDescription, std::allocator<osgeo::proj::operation::GridDescription>>::_Vector_impl_data" = type { ptr, ptr, ptr }
%"class.std::vector.3" = type { %"struct.std::_Vector_base.4" }
%"struct.std::_Vector_base.4" = type { %"struct.std::_Vector_base<PJCoordOperation, std::allocator<PJCoordOperation>>::_Vector_impl" }
%"struct.std::_Vector_base<PJCoordOperation, std::allocator<PJCoordOperation>>::_Vector_impl" = type { %"struct.std::_Vector_base<PJCoordOperation, std::allocator<PJCoordOperation>>::_Vector_impl_data" }
%"struct.std::_Vector_base<PJCoordOperation, std::allocator<PJCoordOperation>>::_Vector_impl_data" = type { ptr, ptr, ptr }
%"struct.(anonymous namespace)::pj_lcca_data" = type { ptr, double, double, double, double }

@.str.1 = private unnamed_addr constant [56 x i8] c"Invalid value for lat_0: it should be different from 0.\00", align 1

; Function Attrs: mustprogress uwtable
define internal noundef ptr @_ZL18pj_lcca_destructorP8PJconstsi(ptr noundef %0, i32 noundef %1) #0 {
  %3 = alloca ptr, align 8
  %4 = alloca ptr, align 8
  %5 = alloca i32, align 4
  store ptr %0, ptr %4, align 8, !tbaa !3
  store i32 %1, ptr %5, align 4, !tbaa !49
  %6 = load ptr, ptr %4, align 8, !tbaa !3
  %7 = icmp eq ptr null, %6
  br i1 %7, label %8, label %9

8:                                                ; preds = %2
  store ptr null, ptr %3, align 8
  br label %27

9:                                                ; preds = %2
  %10 = load ptr, ptr %4, align 8, !tbaa !3
  %11 = getelementptr inbounds nuw %struct.PJconsts, ptr %10, i32 0, i32 11
  %12 = load ptr, ptr %11, align 8, !tbaa !43
  %13 = icmp eq ptr null, %12
  br i1 %13, label %14, label %18

14:                                               ; preds = %9
  %15 = load ptr, ptr %4, align 8, !tbaa !3
  %16 = load i32, ptr %5, align 4, !tbaa !49
  %17 = call noundef ptr @_Z21pj_default_destructorP8PJconstsi(ptr noundef %15, i32 noundef %16)
  store ptr %17, ptr %3, align 8
  br label %27

18:                                               ; preds = %9
  %19 = load ptr, ptr %4, align 8, !tbaa !3
  %20 = getelementptr inbounds nuw %struct.PJconsts, ptr %19, i32 0, i32 11
  %21 = load ptr, ptr %20, align 8, !tbaa !43
  %22 = getelementptr inbounds nuw %"struct.(anonymous namespace)::pj_lcca_data", ptr %21, i32 0, i32 0
  %23 = load ptr, ptr %22, align 8, !tbaa !45
  call void @free(ptr noundef %23) #8
  %24 = load ptr, ptr %4, align 8, !tbaa !3
  %25 = load i32, ptr %5, align 4, !tbaa !49
  %26 = call noundef ptr @_Z21pj_default_destructorP8PJconstsi(ptr noundef %24, i32 noundef %25)
  store ptr %26, ptr %3, align 8
  br label %27

27:                                               ; preds = %18, %14, %8
  %28 = load ptr, ptr %3, align 8
  ret ptr %28
}

; Function Attrs: mustprogress uwtable
define hidden noundef ptr @_Z33pj_projection_specific_setup_lccaP8PJconsts(ptr noundef %0) #0 {
  %2 = alloca ptr, align 8
  %3 = alloca ptr, align 8
  %4 = alloca double, align 8
  %5 = alloca double, align 8
  %6 = alloca double, align 8
  %7 = alloca double, align 8
  %8 = alloca ptr, align 8
  %9 = alloca i32, align 4
  store ptr %0, ptr %3, align 8, !tbaa !3
  call void @llvm.lifetime.start.p0(i64 8, ptr %4) #8
  call void @llvm.lifetime.start.p0(i64 8, ptr %5) #8
  call void @llvm.lifetime.start.p0(i64 8, ptr %6) #8
  call void @llvm.lifetime.start.p0(i64 8, ptr %7) #8
  call void @llvm.lifetime.start.p0(i64 8, ptr %8) #8
  %10 = call noalias ptr @calloc(i64 noundef 1, i64 noundef 40) #9
  store ptr %10, ptr %8, align 8, !tbaa !41
  %11 = load ptr, ptr %8, align 8, !tbaa !41
  %12 = icmp eq ptr null, %11
  br i1 %12, label %13, label %16

13:                                               ; preds = %1
  %14 = load ptr, ptr %3, align 8, !tbaa !3
  %15 = call noundef ptr @_Z21pj_default_destructorP8PJconstsi(ptr noundef %14, i32 noundef 4096)
  store ptr %15, ptr %2, align 8
  store i32 1, ptr %9, align 4
  br label %111

16:                                               ; preds = %1
  %17 = load ptr, ptr %8, align 8, !tbaa !41
  %18 = load ptr, ptr %3, align 8, !tbaa !3
  %19 = getelementptr inbounds nuw %struct.PJconsts, ptr %18, i32 0, i32 11
  store ptr %17, ptr %19, align 8, !tbaa !43
  %20 = load ptr, ptr %3, align 8, !tbaa !3
  %21 = getelementptr inbounds nuw %struct.PJconsts, ptr %20, i32 0, i32 36
  %22 = load double, ptr %21, align 8, !tbaa !44
  %23 = call noundef ptr @_Z7pj_enfnd(double noundef %22)
  %24 = load ptr, ptr %8, align 8, !tbaa !41
  %25 = getelementptr inbounds nuw %"struct.(anonymous namespace)::pj_lcca_data", ptr %24, i32 0, i32 0
  store ptr %23, ptr %25, align 8, !tbaa !45
  %26 = load ptr, ptr %8, align 8, !tbaa !41
  %27 = getelementptr inbounds nuw %"struct.(anonymous namespace)::pj_lcca_data", ptr %26, i32 0, i32 0
  %28 = load ptr, ptr %27, align 8, !tbaa !45
  %29 = icmp ne ptr %28, null
  br i1 %29, label %33, label %30

30:                                               ; preds = %16
  %31 = load ptr, ptr %3, align 8, !tbaa !3
  %32 = call noundef ptr @_Z21pj_default_destructorP8PJconstsi(ptr noundef %31, i32 noundef 4096)
  store ptr %32, ptr %2, align 8
  store i32 1, ptr %9, align 4
  br label %111

33:                                               ; preds = %16
  %34 = load ptr, ptr %3, align 8, !tbaa !3
  %35 = getelementptr inbounds nuw %struct.PJconsts, ptr %34, i32 0, i32 61
  %36 = load double, ptr %35, align 8, !tbaa !48
  %37 = fcmp oeq double %36, 0.000000e+00
  br i1 %37, label %38, label %42

38:                                               ; preds = %33
  %39 = load ptr, ptr %3, align 8, !tbaa !3
  call void (ptr, ptr, ...) @_Z14proj_log_errorPK8PJconstsPKcz(ptr noundef %39, ptr noundef @.str.1)
  %40 = load ptr, ptr %3, align 8, !tbaa !3
  %41 = call noundef ptr @_ZL18pj_lcca_destructorP8PJconstsi(ptr noundef %40, i32 noundef 1027)
  store ptr %41, ptr %2, align 8
  store i32 1, ptr %9, align 4
  br label %111

42:                                               ; preds = %33
  %43 = load ptr, ptr %3, align 8, !tbaa !3
  %44 = getelementptr inbounds nuw %struct.PJconsts, ptr %43, i32 0, i32 61
  %45 = load double, ptr %44, align 8, !tbaa !48
  %46 = call double @sin(double noundef %45) #8, !tbaa !49
  %47 = load ptr, ptr %8, align 8, !tbaa !41
  %48 = getelementptr inbounds nuw %"struct.(anonymous namespace)::pj_lcca_data", ptr %47, i32 0, i32 2
  store double %46, ptr %48, align 8, !tbaa !50
  %49 = load ptr, ptr %3, align 8, !tbaa !3
  %50 = getelementptr inbounds nuw %struct.PJconsts, ptr %49, i32 0, i32 61
  %51 = load double, ptr %50, align 8, !tbaa !48
  %52 = load ptr, ptr %8, align 8, !tbaa !41
  %53 = getelementptr inbounds nuw %"struct.(anonymous namespace)::pj_lcca_data", ptr %52, i32 0, i32 2
  %54 = load double, ptr %53, align 8, !tbaa !50
  %55 = load ptr, ptr %3, align 8, !tbaa !3
  %56 = getelementptr inbounds nuw %struct.PJconsts, ptr %55, i32 0, i32 61
  %57 = load double, ptr %56, align 8, !tbaa !48
  %58 = call double @cos(double noundef %57) #8, !tbaa !49
  %59 = load ptr, ptr %8, align 8, !tbaa !41
  %60 = getelementptr inbounds nuw %"struct.(anonymous namespace)::pj_lcca_data", ptr %59, i32 0, i32 0
  %61 = load ptr, ptr %60, align 8, !tbaa !45
  %62 = call noundef double @_Z7pj_mlfndddPKd(double noundef %51, double noundef %54, double noundef %58, ptr noundef %61)
  %63 = load ptr, ptr %8, align 8, !tbaa !41
  %64 = getelementptr inbounds nuw %"struct.(anonymous namespace)::pj_lcca_data", ptr %63, i32 0, i32 3
  store double %62, ptr %64, align 8, !tbaa !51
  %65 = load ptr, ptr %8, align 8, !tbaa !41
  %66 = getelementptr inbounds nuw %"struct.(anonymous namespace)::pj_lcca_data", ptr %65, i32 0, i32 2
  %67 = load double, ptr %66, align 8, !tbaa !50
  %68 = load ptr, ptr %8, align 8, !tbaa !41
  %69 = getelementptr inbounds nuw %"struct.(anonymous namespace)::pj_lcca_data", ptr %68, i32 0, i32 2
  %70 = load double, ptr %69, align 8, !tbaa !50
  %71 = fmul double %67, %70
  store double %71, ptr %4, align 8, !tbaa !52
  %72 = load ptr, ptr %3, align 8, !tbaa !3
  %73 = getelementptr inbounds nuw %struct.PJconsts, ptr %72, i32 0, i32 27
  %74 = load double, ptr %73, align 8, !tbaa !53
  %75 = load double, ptr %4, align 8, !tbaa !52
  %76 = fneg double %74
  %77 = call double @llvm.fmuladd.f64(double %76, double %75, double 1.000000e+00)
  %78 = fdiv double 1.000000e+00, %77
  store double %78, ptr %6, align 8, !tbaa !52
  %79 = load double, ptr %6, align 8, !tbaa !52
  %80 = call double @sqrt(double noundef %79) #8, !tbaa !49
  store double %80, ptr %5, align 8, !tbaa !52
  %81 = load ptr, ptr %3, align 8, !tbaa !3
  %82 = getelementptr inbounds nuw %struct.PJconsts, ptr %81, i32 0, i32 32
  %83 = load double, ptr %82, align 8, !tbaa !54
  %84 = load double, ptr %5, align 8, !tbaa !52
  %85 = fmul double %83, %84
  %86 = load double, ptr %6, align 8, !tbaa !52
  %87 = fmul double %86, %85
  store double %87, ptr %6, align 8, !tbaa !52
  %88 = load ptr, ptr %3, align 8, !tbaa !3
  %89 = getelementptr inbounds nuw %struct.PJconsts, ptr %88, i32 0, i32 61
  %90 = load double, ptr %89, align 8, !tbaa !48
  %91 = call double @tan(double noundef %90) #8, !tbaa !49
  store double %91, ptr %7, align 8, !tbaa !52
  %92 = load double, ptr %5, align 8, !tbaa !52
  %93 = load double, ptr %7, align 8, !tbaa !52
  %94 = fdiv double %92, %93
  %95 = load ptr, ptr %8, align 8, !tbaa !41
  %96 = getelementptr inbounds nuw %"struct.(anonymous namespace)::pj_lcca_data", ptr %95, i32 0, i32 1
  store double %94, ptr %96, align 8, !tbaa !55
  %97 = load double, ptr %6, align 8, !tbaa !52
  %98 = fmul double 6.000000e+00, %97
  %99 = load double, ptr %5, align 8, !tbaa !52
  %100 = fmul double %98, %99
  %101 = fdiv double 1.000000e+00, %100
  %102 = load ptr, ptr %8, align 8, !tbaa !41
  %103 = getelementptr inbounds nuw %"struct.(anonymous namespace)::pj_lcca_data", ptr %102, i32 0, i32 4
  store double %101, ptr %103, align 8, !tbaa !56
  %104 = load ptr, ptr %3, align 8, !tbaa !3
  %105 = getelementptr inbounds nuw %struct.PJconsts, ptr %104, i32 0, i32 14
  store ptr @_ZL14lcca_e_inverse5PJ_XYP8PJconsts, ptr %105, align 8, !tbaa !57
  %106 = load ptr, ptr %3, align 8, !tbaa !3
  %107 = getelementptr inbounds nuw %struct.PJconsts, ptr %106, i32 0, i32 13
  store ptr @_ZL14lcca_e_forward5PJ_LPP8PJconsts, ptr %107, align 8, !tbaa !58
  %108 = load ptr, ptr %3, align 8, !tbaa !3
  %109 = getelementptr inbounds nuw %struct.PJconsts, ptr %108, i32 0, i32 19
  store ptr @_ZL18pj_lcca_destructorP8PJconstsi, ptr %109, align 8, !tbaa !59
  %110 = load ptr, ptr %3, align 8, !tbaa !3
  store ptr %110, ptr %2, align 8
  store i32 1, ptr %9, align 4
  br label %111

111:                                              ; preds = %42, %38, %30, %13
  call void @llvm.lifetime.end.p0(i64 8, ptr %8) #8
  call void @llvm.lifetime.end.p0(i64 8, ptr %7) #8
  call void @llvm.lifetime.end.p0(i64 8, ptr %6) #8
  call void @llvm.lifetime.end.p0(i64 8, ptr %5) #8
  call void @llvm.lifetime.end.p0(i64 8, ptr %4) #8
  %112 = load ptr, ptr %2, align 8
  ret ptr %112
}