; Function Attrs: mustprogress uwtable
define hidden noundef ptr @_Z33pj_projection_specific_setup_lccaP8PJconsts(ptr noundef %0) local_unnamed_addr #0 {
  %2 = tail call noalias dereferenceable_or_null(40) ptr @calloc(i64 noundef 1, i64 noundef 40) #6
  %3 = icmp eq ptr %2, null
  br i1 %3, label %4, label %6

4:                                                ; preds = %1
  %5 = tail call noundef ptr @_Z21pj_default_destructorP8PJconstsi(ptr noundef %0, i32 noundef 4096)
  br label %52

6:                                                ; preds = %1
  %7 = getelementptr inbounds nuw i8, ptr %0, i64 88
  store ptr %2, ptr %7, align 8, !tbaa !40
  %8 = getelementptr inbounds nuw i8, ptr %0, i64 288
  %9 = load double, ptr %8, align 8, !tbaa !41
  %10 = tail call noundef ptr @_Z7pj_enfnd(double noundef %9)
  store ptr %10, ptr %2, align 8, !tbaa !42
  %.not = icmp eq ptr %10, null
  br i1 %.not, label %11, label %13

11:                                               ; preds = %6
  %12 = tail call noundef ptr @_Z21pj_default_destructorP8PJconstsi(ptr noundef nonnull %0, i32 noundef 4096)
  br label %52

13:                                               ; preds = %6
  %14 = getelementptr inbounds nuw i8, ptr %0, i64 448
  %15 = load double, ptr %14, align 8, !tbaa !45
  %16 = fcmp oeq double %15, 0.000000e+00
  br i1 %16, label %17, label %23

17:                                               ; preds = %13
  tail call void (ptr, ptr, ...) @_Z14proj_log_errorPK8PJconstsPKcz(ptr noundef nonnull %0, ptr noundef nonnull @.str.1)
  %18 = load ptr, ptr %7, align 8, !tbaa !40
  %19 = icmp eq ptr %18, null
  br i1 %19, label %_ZL18pj_lcca_destructorP8PJconstsi.exit, label %20

20:                                               ; preds = %17
  %21 = load ptr, ptr %18, align 8, !tbaa !42
  tail call void @free(ptr noundef %21) #7
  br label %_ZL18pj_lcca_destructorP8PJconstsi.exit

_ZL18pj_lcca_destructorP8PJconstsi.exit:          ; preds = %17, %20
  %22 = tail call noundef ptr @_Z21pj_default_destructorP8PJconstsi(ptr noundef nonnull %0, i32 noundef 1027)
  br label %52

23:                                               ; preds = %13
  %24 = tail call double @sin(double noundef %15) #7, !tbaa !46
  %25 = getelementptr inbounds nuw i8, ptr %2, i64 16
  store double %24, ptr %25, align 8, !tbaa !47
  %26 = tail call double @cos(double noundef %15) #7, !tbaa !46
  %27 = tail call noundef double @_Z7pj_mlfndddPKd(double noundef %15, double noundef %24, double noundef %26, ptr noundef nonnull %10)
  %28 = getelementptr inbounds nuw i8, ptr %2, i64 24
  store double %27, ptr %28, align 8, !tbaa !48
  %29 = load double, ptr %25, align 8, !tbaa !47
  %30 = fmul double %29, %29
  %31 = getelementptr inbounds nuw i8, ptr %0, i64 216
  %32 = load double, ptr %31, align 8, !tbaa !49
  %33 = fneg double %32
  %34 = tail call double @llvm.fmuladd.f64(double %33, double %30, double 1.000000e+00)
  %35 = fdiv double 1.000000e+00, %34
  %36 = tail call double @sqrt(double noundef %35) #7, !tbaa !46
  %37 = getelementptr inbounds nuw i8, ptr %0, i64 256
  %38 = load double, ptr %37, align 8, !tbaa !50
  %39 = fmul double %36, %38
  %40 = fmul double %35, %39
  %41 = load double, ptr %14, align 8, !tbaa !45
  %42 = tail call double @tan(double noundef %41) #7, !tbaa !46
  %43 = fdiv double %36, %42
  %44 = getelementptr inbounds nuw i8, ptr %2, i64 8
  store double %43, ptr %44, align 8, !tbaa !51
  %45 = fmul double %40, 6.000000e+00
  %46 = fmul double %36, %45
  %47 = fdiv double 1.000000e+00, %46
  %48 = getelementptr inbounds nuw i8, ptr %2, i64 32
  store double %47, ptr %48, align 8, !tbaa !52
  %49 = getelementptr inbounds nuw i8, ptr %0, i64 112
  store ptr @_ZL14lcca_e_inverse5PJ_XYP8PJconsts, ptr %49, align 8, !tbaa !53
  %50 = getelementptr inbounds nuw i8, ptr %0, i64 104
  store ptr @_ZL14lcca_e_forward5PJ_LPP8PJconsts, ptr %50, align 8, !tbaa !54
  %51 = getelementptr inbounds nuw i8, ptr %0, i64 152
  store ptr @_ZL18pj_lcca_destructorP8PJconstsi, ptr %51, align 8, !tbaa !55
  br label %52

52:                                               ; preds = %23, %_ZL18pj_lcca_destructorP8PJconstsi.exit, %11, %4
  %.0 = phi ptr [ %5, %4 ], [ %22, %_ZL18pj_lcca_destructorP8PJconstsi.exit ], [ %0, %23 ], [ %12, %11 ]
  ret ptr %.0
}